(lp0
(S'Gnome-terminal'
p1
S'/home/benoror/Dropbox/dotfiles/gnome-terminal.desktop'
p2
tp3
a(S'Chrome'
p4
S'/usr/share/applications/chromium-browser.desktop'
p5
tp6
a(S'Pidgin'
p7
S'/usr/share/applications/pidgin.desktop'
p8
tp9
a(S'Empathy'
p10
S'/usr/share/applications/empathy.desktop'
p11
tp12
a(S'Skype'
p13
S'/usr/share/applications/skype.desktop'
p14
tp15
a(S'Cheese'
p16
S'/usr/share/applications/cheese.desktop'
p17
tp18
a(S'Kompozer-bin'
p19
S'/usr/share/applications/kompozer.desktop'
p20
tp21
a(S'Vlc'
p22
S'/usr/share/applications/vlc.desktop'
p23
tp24
a(S'VirtualBox'
p25
S'/usr/share/applications/VirtualBox.desktop'
p26
tp27
a(S'Transmission'
p28
S'/usr/share/applications/transmission.desktop'
p29
tp30
a.